target datalayout = "e-m:e-p270:32:32-p271:32:32-p272:64:64-i64:64-i128:128-f80:128-n8:16:32:64-S128"
target triple = "x86_64-pc-linux-gnu"

%"class.QtPrivate::RefCount" = type { %class.QBasicAtomicInteger }
%class.QBasicAtomicInteger = type { %"struct.std::atomic" }
%"struct.std::atomic" = type { %"struct.std::__atomic_base" }
%"struct.std::__atomic_base" = type { i32 }
%"struct.QListData::Data" = type { %"class.QtPrivate::RefCount", i32, i32, i32, [1 x ptr] }
%struct.QListData = type { ptr }
%"class.std::vector.335" = type { %"struct.std::_Vector_base.336" }
%"struct.std::_Vector_base.336" = type { %"struct.std::_Vector_base<MeshModel *, std::allocator<MeshModel *>>::_Vector_impl" }
%"struct.std::_Vector_base<MeshModel *, std::allocator<MeshModel *>>::_Vector_impl" = type { %"struct.std::_Vector_base<MeshModel *, std::allocator<MeshModel *>>::_Vector_impl_data" }
%"struct.std::_Vector_base<MeshModel *, std::allocator<MeshModel *>>::_Vector_impl_data" = type { ptr, ptr, ptr }
%class.QList.340 = type { %union.anon.342 }
%union.anon.342 = type { %struct.QListData }
%class.QStringList = type { %class.QList.340 }

@_ZN9QListData11shared_nullE = external global %"struct.QListData::Data", align 8

; Function Attrs: mustprogress nounwind uwtable
define linkonce_odr void @_ZN5QListI7QStringEC2Ev(ptr noundef nonnull align 8 dereferenceable(8) %0) unnamed_addr #4 comdat align 2 {
  %2 = alloca ptr, align 8
  store ptr %0, ptr %2, align 8
  %3 = load ptr, ptr %2, align 8
  %4 = getelementptr inbounds %class.QList.340, ptr %3, i32 0, i32 0
  store ptr @_ZN9QListData11shared_nullE, ptr %4, align 8
  ret void
}

; Function Attrs: mustprogress uwtable
define linkonce_odr void @_ZN5QListI7QStringE9push_backERKS0_(ptr noundef nonnull align 8 dereferenceable(8) %0, ptr noundef nonnull align 8 dereferenceable(8) %1) #5 comdat align 2 {
  %3 = alloca ptr, align 8
  %4 = alloca ptr, align 8
  store ptr %0, ptr %3, align 8
  store ptr %1, ptr %4, align 8
  %5 = load ptr, ptr %3, align 8
  %6 = load ptr, ptr %4, align 8
  call void @_ZN5QListI7QStringE6appendERKS0_(ptr noundef nonnull align 8 dereferenceable(8) %5, ptr noundef nonnull align 8 dereferenceable(8) %6)
  ret void
}

; Function Attrs: mustprogress nounwind uwtable
define linkonce_odr void @_ZN11QStringListC2Ev(ptr noundef nonnull align 8 dereferenceable(8) %0) unnamed_addr #4 comdat align 2 {
  %2 = alloca ptr, align 8
  store ptr %0, ptr %2, align 8
  %3 = load ptr, ptr %2, align 8
  call void @_ZN5QListI7QStringEC2Ev(ptr noundef nonnull align 8 dereferenceable(8) %3) #3
  ret void
}

; Function Attrs: mustprogress uwtable
define void @_ZN7meshlab11loadProjectERK7QStringR12MeshDocumentP11GLLogStreamPFbiPKcE(ptr dead_on_unwind noalias writable sret(%"class.std::vector.335") align 8 %0, ptr noundef nonnull align 8 dereferenceable(8) %1, ptr noundef nonnull align 8 dereferenceable(192) %2, ptr noundef %3, ptr noundef %4) #5 personality ptr @__gxx_personality_v0 {
  %6 = alloca ptr, align 8
  %7 = alloca ptr, align 8
  %8 = alloca ptr, align 8
  %9 = alloca ptr, align 8
  %10 = alloca ptr, align 8
  %11 = alloca %class.QStringList, align 8
  %12 = alloca ptr, align 8
  %13 = alloca i32, align 4
  store ptr %0, ptr %6, align 8
  store ptr %1, ptr %7, align 8
  store ptr %2, ptr %8, align 8
  store ptr %3, ptr %9, align 8
  store ptr %4, ptr %10, align 8
  call void @_ZN11QStringListC2Ev(ptr noundef nonnull align 8 dereferenceable(8) %11) #3
  %14 = load ptr, ptr %7, align 8
  invoke void @_ZN5QListI7QStringE9push_backERKS0_(ptr noundef nonnull align 8 dereferenceable(8) %11, ptr noundef nonnull align 8 dereferenceable(8) %14)
          to label %15 unwind label %20

15:                                               ; preds = %5
  %16 = load ptr, ptr %8, align 8
  %17 = load ptr, ptr %9, align 8
  %18 = load ptr, ptr %10, align 8
  invoke void @_ZN7meshlab11loadProjectERK11QStringListR12MeshDocumentP11GLLogStreamPFbiPKcE(ptr dead_on_unwind writable sret(%"class.std::vector.335") align 8 %0, ptr noundef nonnull align 8 dereferenceable(8) %11, ptr noundef nonnull align 8 dereferenceable(192) %16, ptr noundef %17, ptr noundef %18)
          to label %19 unwind label %20

19:                                               ; preds = %15
  call void @_ZN11QStringListD2Ev(ptr noundef nonnull align 8 dereferenceable(8) %11) #3
  ret void

20:                                               ; preds = %15, %5
  %21 = landingpad { ptr, i32 }
          cleanup
  %22 = extractvalue { ptr, i32 } %21, 0
  store ptr %22, ptr %12, align 8
  %23 = extractvalue { ptr, i32 } %21, 1
  store i32 %23, ptr %13, align 4
  call void @_ZN11QStringListD2Ev(ptr noundef nonnull align 8 dereferenceable(8) %11) #3
  br label %24

24:                                               ; preds = %20
  %25 = load ptr, ptr %12, align 8
  %26 = load i32, ptr %13, align 4
  %27 = insertvalue { ptr, i32 } poison, ptr %25, 0
  %28 = insertvalue { ptr, i32 } %27, i32 %26, 1
  resume { ptr, i32 } %28
}