; Function Attrs: mustprogress uwtable
define void @_ZN7meshlab11loadProjectERK7QStringR12MeshDocumentP11GLLogStreamPFbiPKcE(ptr dead_on_unwind noalias writable sret(%"class.std::vector.335") align 8 %0, ptr noundef nonnull align 8 dereferenceable(8) %1, ptr noundef nonnull align 8 dereferenceable(192) %2, ptr noundef %3, ptr noundef %4) local_unnamed_addr #9 personality ptr @__gxx_personality_v0 {
  %6 = alloca %class.QStringList, align 8
  store ptr @_ZN9QListData11shared_nullE, ptr %6, align 8
  invoke void @_ZN5QListI7QStringE6appendERKS0_(ptr noundef nonnull align 8 dereferenceable(8) %6, ptr noundef nonnull align 8 dereferenceable(8) %1)
          to label %_ZN5QListI7QStringE9push_backERKS0_.exit unwind label %29

_ZN5QListI7QStringE9push_backERKS0_.exit:         ; preds = %5
  invoke void @_ZN7meshlab11loadProjectERK11QStringListR12MeshDocumentP11GLLogStreamPFbiPKcE(ptr dead_on_unwind writable sret(%"class.std::vector.335") align 8 %0, ptr noundef nonnull align 8 dereferenceable(8) %6, ptr noundef nonnull align 8 dereferenceable(192) %2, ptr noundef %3, ptr noundef %4)
          to label %7 unwind label %29

7:                                                ; preds = %_ZN5QListI7QStringE9push_backERKS0_.exit
  %8 = load ptr, ptr %6, align 8
  %9 = load atomic i32, ptr %8 monotonic, align 4
  switch i32 %9, label %_ZN9QtPrivate8RefCount5derefEv.exit.i.i [
    i32 0, label %_ZN9QtPrivate8RefCount5derefEv.exit.thread2.i.i
    i32 -1, label %_ZN11QStringListD2Ev.exit
  ]

_ZN9QtPrivate8RefCount5derefEv.exit.i.i:          ; preds = %7
  %10 = atomicrmw sub ptr %8, i32 1 seq_cst, align 4
  %.not.i.i = icmp eq i32 %10, 1
  br i1 %.not.i.i, label %_ZN9QtPrivate8RefCount5derefEv.exit._ZN9QtPrivate8RefCount5derefEv.exit.thread2_crit_edge.i.i, label %_ZN11QStringListD2Ev.exit

_ZN9QtPrivate8RefCount5derefEv.exit._ZN9QtPrivate8RefCount5derefEv.exit.thread2_crit_edge.i.i: ; preds = %_ZN9QtPrivate8RefCount5derefEv.exit.i.i
  %.pre.i.i = load ptr, ptr %6, align 8
  br label %_ZN9QtPrivate8RefCount5derefEv.exit.thread2.i.i

_ZN9QtPrivate8RefCount5derefEv.exit.thread2.i.i:  ; preds = %_ZN9QtPrivate8RefCount5derefEv.exit._ZN9QtPrivate8RefCount5derefEv.exit.thread2_crit_edge.i.i, %7
  %11 = phi ptr [ %.pre.i.i, %_ZN9QtPrivate8RefCount5derefEv.exit._ZN9QtPrivate8RefCount5derefEv.exit.thread2_crit_edge.i.i ], [ %8, %7 ]
  %12 = getelementptr inbounds i8, ptr %11, i64 16
  %13 = getelementptr inbounds i8, ptr %11, i64 8
  %14 = load i32, ptr %13, align 8
  %15 = sext i32 %14 to i64
  %16 = getelementptr inbounds ptr, ptr %12, i64 %15
  %17 = getelementptr inbounds i8, ptr %11, i64 12
  %18 = load i32, ptr %17, align 4
  %.not4.i.i.i.i = icmp eq i32 %18, %14
  br i1 %.not4.i.i.i.i, label %_ZN5QListI7QStringE13node_destructEPNS1_4NodeES3_.exit.i.i.i, label %.lr.ph.i.preheader.i.i.i

.lr.ph.i.preheader.i.i.i:                         ; preds = %_ZN9QtPrivate8RefCount5derefEv.exit.thread2.i.i
  %19 = sext i32 %18 to i64
  %20 = getelementptr inbounds ptr, ptr %12, i64 %19
  br label %.lr.ph.i.i.i.i

.lr.ph.i.i.i.i:                                   ; preds = %_ZN7QStringD2Ev.exit.i.i.i.i, %.lr.ph.i.preheader.i.i.i
  %.05.i.i.i.i = phi ptr [ %21, %_ZN7QStringD2Ev.exit.i.i.i.i ], [ %20, %.lr.ph.i.preheader.i.i.i ]
  %21 = getelementptr inbounds i8, ptr %.05.i.i.i.i, i64 -8
  %22 = load ptr, ptr %21, align 8
  %23 = load atomic i32, ptr %22 monotonic, align 4
  switch i32 %23, label %_ZN9QtPrivate8RefCount5derefEv.exit.i.i.i.i.i [
    i32 0, label %_ZN9QtPrivate8RefCount5derefEv.exit.thread2.i.i.i.i.i
    i32 -1, label %_ZN7QStringD2Ev.exit.i.i.i.i
  ]

_ZN9QtPrivate8RefCount5derefEv.exit.i.i.i.i.i:    ; preds = %.lr.ph.i.i.i.i
  %24 = atomicrmw sub ptr %22, i32 1 seq_cst, align 4
  %.not.i.i.i.i.i = icmp eq i32 %24, 1
  br i1 %.not.i.i.i.i.i, label %_ZN9QtPrivate8RefCount5derefEv.exit._ZN9QtPrivate8RefCount5derefEv.exit.thread2_crit_edge.i.i.i.i.i, label %_ZN7QStringD2Ev.exit.i.i.i.i

_ZN9QtPrivate8RefCount5derefEv.exit._ZN9QtPrivate8RefCount5derefEv.exit.thread2_crit_edge.i.i.i.i.i: ; preds = %_ZN9QtPrivate8RefCount5derefEv.exit.i.i.i.i.i
  %.pre.i.i.i.i.i = load ptr, ptr %21, align 8
  br label %_ZN9QtPrivate8RefCount5derefEv.exit.thread2.i.i.i.i.i

_ZN9QtPrivate8RefCount5derefEv.exit.thread2.i.i.i.i.i: ; preds = %_ZN9QtPrivate8RefCount5derefEv.exit._ZN9QtPrivate8RefCount5derefEv.exit.thread2_crit_edge.i.i.i.i.i, %.lr.ph.i.i.i.i
  %25 = phi ptr [ %.pre.i.i.i.i.i, %_ZN9QtPrivate8RefCount5derefEv.exit._ZN9QtPrivate8RefCount5derefEv.exit.thread2_crit_edge.i.i.i.i.i ], [ %22, %.lr.ph.i.i.i.i ]
  call void @_ZN10QArrayData10deallocateEPS_mm(ptr noundef %25, i64 noundef 2, i64 noundef 8) #25
  br label %_ZN7QStringD2Ev.exit.i.i.i.i

_ZN7QStringD2Ev.exit.i.i.i.i:                     ; preds = %_ZN9QtPrivate8RefCount5derefEv.exit.thread2.i.i.i.i.i, %_ZN9QtPrivate8RefCount5derefEv.exit.i.i.i.i.i, %.lr.ph.i.i.i.i
  %.not.i.i.i.i = icmp eq ptr %21, %16
  br i1 %.not.i.i.i.i, label %_ZN5QListI7QStringE13node_destructEPNS1_4NodeES3_.exit.i.i.i, label %.lr.ph.i.i.i.i, !llvm.loop !172

_ZN5QListI7QStringE13node_destructEPNS1_4NodeES3_.exit.i.i.i: ; preds = %_ZN7QStringD2Ev.exit.i.i.i.i, %_ZN9QtPrivate8RefCount5derefEv.exit.thread2.i.i
  invoke void @_ZN9QListData7disposeEPNS_4DataE(ptr noundef %11)
          to label %_ZN11QStringListD2Ev.exit unwind label %26

26:                                               ; preds = %_ZN5QListI7QStringE13node_destructEPNS1_4NodeES3_.exit.i.i.i
  %27 = landingpad { ptr, i32 }
          catch ptr null
  %28 = extractvalue { ptr, i32 } %27, 0
  call void @__clang_call_terminate(ptr %28) #26
  unreachable

_ZN11QStringListD2Ev.exit:                        ; preds = %7, %_ZN9QtPrivate8RefCount5derefEv.exit.i.i, %_ZN5QListI7QStringE13node_destructEPNS1_4NodeES3_.exit.i.i.i
  ret void

29:                                               ; preds = %5, %_ZN5QListI7QStringE9push_backERKS0_.exit
  %30 = landingpad { ptr, i32 }
          cleanup
  call void @_ZN11QStringListD2Ev(ptr noundef nonnull align 8 dereferenceable(8) %6) #25
  resume { ptr, i32 } %30
}